; Function Attrs: nounwind uwtable
define ptr @l_Lean_Meta_Grind_splitNext___lambda__1(ptr noundef %0, ptr readnone captures(none) %1, ptr readnone captures(none) %2, ptr readnone captures(none) %3, ptr readnone captures(none) %4, ptr readnone captures(none) %5, ptr readnone captures(none) %6, ptr readnone captures(none) %7, ptr noundef %8) local_unnamed_addr #0 {
  %10 = tail call ptr @lean_st_mk_ref(ptr noundef %0, ptr noundef %8) #4
  %.val = load i32, ptr %10, align 4, !tbaa !10
  %11 = icmp eq i32 %.val, 1
  br i1 %11, label %48, label %12

12:                                               ; preds = %9
  %13 = getelementptr inbounds nuw i8, ptr %10, i64 8
  %14 = load ptr, ptr %13, align 8, !tbaa !4
  %15 = getelementptr inbounds nuw i8, ptr %10, i64 16
  %16 = load ptr, ptr %15, align 8, !tbaa !4
  %17 = ptrtoint ptr %16 to i64
  %18 = and i64 %17, 1
  %.not = icmp eq i64 %18, 0
  br i1 %.not, label %19, label %lean_inc.exit15

19:                                               ; preds = %12
  %.val.i = load i32, ptr %16, align 4, !tbaa !10
  %20 = icmp sgt i32 %.val.i, 0
  br i1 %20, label %21, label %23, !prof !13

21:                                               ; preds = %19
  %22 = add nuw i32 %.val.i, 1
  store i32 %22, ptr %16, align 4, !tbaa !10
  br label %lean_inc.exit15

23:                                               ; preds = %19
  %.not.i16 = icmp eq i32 %.val.i, 0
  br i1 %.not.i16, label %lean_inc.exit15, label %24

24:                                               ; preds = %23
  tail call void @lean_inc_ref_cold(ptr noundef nonnull %16) #4
  br label %lean_inc.exit15

lean_inc.exit15:                                  ; preds = %24, %23, %21, %12
  %25 = ptrtoint ptr %14 to i64
  %26 = and i64 %25, 1
  %.not20 = icmp eq i64 %26, 0
  br i1 %.not20, label %27, label %lean_inc.exit

27:                                               ; preds = %lean_inc.exit15
  %.val.i17 = load i32, ptr %14, align 4, !tbaa !10
  %28 = icmp sgt i32 %.val.i17, 0
  br i1 %28, label %29, label %31, !prof !13

29:                                               ; preds = %27
  %30 = add nuw i32 %.val.i17, 1
  store i32 %30, ptr %14, align 4, !tbaa !10
  br label %lean_inc.exit

31:                                               ; preds = %27
  %.not.i18 = icmp eq i32 %.val.i17, 0
  br i1 %.not.i18, label %lean_inc.exit, label %32

32:                                               ; preds = %31
  tail call void @lean_inc_ref_cold(ptr noundef nonnull %14) #4
  br label %lean_inc.exit

lean_inc.exit:                                    ; preds = %32, %31, %29, %lean_inc.exit15
  %33 = ptrtoint ptr %10 to i64
  %34 = and i64 %33, 1
  %.not21 = icmp eq i64 %34, 0
  br i1 %.not21, label %35, label %lean_dec.exit

35:                                               ; preds = %lean_inc.exit
  %36 = load i32, ptr %10, align 4, !tbaa !10
  %37 = icmp sgt i32 %36, 1
  br i1 %37, label %38, label %40, !prof !13

38:                                               ; preds = %35
  %39 = add nsw i32 %36, -1
  store i32 %39, ptr %10, align 4, !tbaa !10
  br label %lean_dec.exit

40:                                               ; preds = %35
  %.not.i = icmp eq i32 %36, 0
  br i1 %.not.i, label %lean_dec.exit, label %41

41:                                               ; preds = %40
  tail call void @lean_dec_ref_cold(ptr noundef nonnull %10) #4
  br label %lean_dec.exit

lean_dec.exit:                                    ; preds = %41, %40, %38, %lean_inc.exit
  tail call void @lean_inc_heartbeat() #4
  %42 = tail call noalias ptr @mi_malloc_small(i64 noundef 24) #4
  %43 = icmp eq ptr %42, null
  br i1 %43, label %44, label %lean_alloc_ctor.exit

44:                                               ; preds = %lean_dec.exit
  tail call void @lean_internal_panic_out_of_memory() #5
  unreachable

lean_alloc_ctor.exit:                             ; preds = %lean_dec.exit
  %45 = getelementptr inbounds nuw i8, ptr %42, i64 4
  store i32 1, ptr %42, align 4, !tbaa !10
  store i32 131096, ptr %45, align 4
  %46 = getelementptr inbounds nuw i8, ptr %42, i64 8
  store ptr %14, ptr %46, align 8, !tbaa !4
  %47 = getelementptr inbounds nuw i8, ptr %42, i64 16
  store ptr %16, ptr %47, align 8, !tbaa !4
  br label %48

48:                                               ; preds = %9, %lean_alloc_ctor.exit
  %.0 = phi ptr [ %42, %lean_alloc_ctor.exit ], [ %10, %9 ]
  ret ptr %.0
}